target datalayout = "e-m:e-p270:32:32-p271:32:32-p272:64:64-i64:64-i128:128-f80:128-n8:16:32:64-S128"
target triple = "x86_64-pc-linux-gnu"

%struct.RFILE = type { ptr, i32, ptr, ptr, ptr, ptr, i64, ptr, i32 }

@stderr = external global ptr, align 8
@.str.9 = private unnamed_addr constant [42 x i8] c"XXX readobject called with exception set\0A\00", align 1
@.str.10 = private unnamed_addr constant [14 x i8] c"marshal.loads\00", align 1
@.str.11 = private unnamed_addr constant [3 x i8] c"y#\00", align 1
@.str.12 = private unnamed_addr constant [13 x i8] c"marshal.load\00", align 1
@PyExc_TypeError = external global ptr, align 8
@.str.13 = private unnamed_addr constant [39 x i8] c"NULL object in marshal data for object\00", align 1

; Function Attrs: nounwind uwtable
define internal ptr @read_object(ptr noundef %0) #0 {
  %2 = alloca ptr, align 8
  %3 = alloca ptr, align 8
  %4 = alloca ptr, align 8
  %5 = alloca i32, align 4
  store ptr %0, ptr %3, align 8, !tbaa !23
  call void @llvm.lifetime.start.p0(i64 8, ptr %4) #11
  %6 = call ptr @PyErr_Occurred()
  %7 = icmp ne ptr %6, null
  br i1 %7, label %8, label %11

8:                                                ; preds = %1
  %9 = load ptr, ptr @stderr, align 8, !tbaa !8
  %10 = call i32 (ptr, ptr, ...) @fprintf(ptr noundef %9, ptr noundef @.str.9) #11
  store ptr null, ptr %2, align 8
  store i32 1, ptr %5, align 4
  br label %66

11:                                               ; preds = %1
  %12 = load ptr, ptr %3, align 8, !tbaa !23
  %13 = getelementptr inbounds nuw %struct.RFILE, ptr %12, i32 0, i32 3
  %14 = load ptr, ptr %13, align 8, !tbaa !32
  %15 = icmp ne ptr %14, null
  br i1 %15, label %16, label %38

16:                                               ; preds = %11
  %17 = load ptr, ptr %3, align 8, !tbaa !23
  %18 = getelementptr inbounds nuw %struct.RFILE, ptr %17, i32 0, i32 4
  %19 = load ptr, ptr %18, align 8, !tbaa !33
  %20 = icmp ne ptr %19, null
  br i1 %20, label %21, label %38

21:                                               ; preds = %16
  %22 = load ptr, ptr %3, align 8, !tbaa !23
  %23 = getelementptr inbounds nuw %struct.RFILE, ptr %22, i32 0, i32 3
  %24 = load ptr, ptr %23, align 8, !tbaa !32
  %25 = load ptr, ptr %3, align 8, !tbaa !23
  %26 = getelementptr inbounds nuw %struct.RFILE, ptr %25, i32 0, i32 4
  %27 = load ptr, ptr %26, align 8, !tbaa !33
  %28 = load ptr, ptr %3, align 8, !tbaa !23
  %29 = getelementptr inbounds nuw %struct.RFILE, ptr %28, i32 0, i32 3
  %30 = load ptr, ptr %29, align 8, !tbaa !32
  %31 = ptrtoint ptr %27 to i64
  %32 = ptrtoint ptr %30 to i64
  %33 = sub i64 %31, %32
  %34 = call i32 (ptr, ptr, ...) @PySys_Audit(ptr noundef @.str.10, ptr noundef @.str.11, ptr noundef %24, i64 noundef %33)
  %35 = icmp slt i32 %34, 0
  br i1 %35, label %36, label %37

36:                                               ; preds = %21
  store ptr null, ptr %2, align 8
  store i32 1, ptr %5, align 4
  br label %66

37:                                               ; preds = %21
  br label %54

38:                                               ; preds = %16, %11
  %39 = load ptr, ptr %3, align 8, !tbaa !23
  %40 = getelementptr inbounds nuw %struct.RFILE, ptr %39, i32 0, i32 0
  %41 = load ptr, ptr %40, align 8, !tbaa !31
  %42 = icmp ne ptr %41, null
  br i1 %42, label %48, label %43

43:                                               ; preds = %38
  %44 = load ptr, ptr %3, align 8, !tbaa !23
  %45 = getelementptr inbounds nuw %struct.RFILE, ptr %44, i32 0, i32 2
  %46 = load ptr, ptr %45, align 8, !tbaa !29
  %47 = icmp ne ptr %46, null
  br i1 %47, label %48, label %53

48:                                               ; preds = %43, %38
  %49 = call i32 (ptr, ptr, ...) @PySys_Audit(ptr noundef @.str.12, ptr noundef null)
  %50 = icmp slt i32 %49, 0
  br i1 %50, label %51, label %52

51:                                               ; preds = %48
  store ptr null, ptr %2, align 8
  store i32 1, ptr %5, align 4
  br label %66

52:                                               ; preds = %48
  br label %53

53:                                               ; preds = %52, %43
  br label %54

54:                                               ; preds = %53, %37
  %55 = load ptr, ptr %3, align 8, !tbaa !23
  %56 = call ptr @r_object(ptr noundef %55)
  store ptr %56, ptr %4, align 8, !tbaa !25
  %57 = load ptr, ptr %4, align 8, !tbaa !25
  %58 = icmp eq ptr %57, null
  br i1 %58, label %59, label %64

59:                                               ; preds = %54
  %60 = call ptr @PyErr_Occurred()
  %61 = icmp ne ptr %60, null
  br i1 %61, label %64, label %62

62:                                               ; preds = %59
  %63 = load ptr, ptr @PyExc_TypeError, align 8, !tbaa !25
  call void @PyErr_SetString(ptr noundef %63, ptr noundef @.str.13)
  br label %64

64:                                               ; preds = %62, %59, %54
  %65 = load ptr, ptr %4, align 8, !tbaa !25
  store ptr %65, ptr %2, align 8
  store i32 1, ptr %5, align 4
  br label %66

66:                                               ; preds = %64, %51, %36, %8
  call void @llvm.lifetime.end.p0(i64 8, ptr %4) #11
  %67 = load ptr, ptr %2, align 8
  ret ptr %67
}