; Function Attrs: nounwind uwtable
define internal fastcc ptr @read_object(ptr noundef nonnull %0) unnamed_addr #0 {
  %2 = tail call ptr @PyErr_Occurred() #11
  %.not = icmp eq ptr %2, null
  br i1 %.not, label %6, label %3

3:                                                ; preds = %1
  %4 = load ptr, ptr @stderr, align 8, !tbaa !52
  %5 = tail call i64 @fwrite(ptr nonnull @.str.9, i64 41, i64 1, ptr %4) #12
  br label %33

6:                                                ; preds = %1
  %7 = getelementptr inbounds nuw i8, ptr %0, i64 24
  %8 = load ptr, ptr %7, align 8, !tbaa !48
  %.not13 = icmp eq ptr %8, null
  br i1 %.not13, label %18, label %9

9:                                                ; preds = %6
  %10 = getelementptr inbounds nuw i8, ptr %0, i64 32
  %11 = load ptr, ptr %10, align 8, !tbaa !49
  %.not14 = icmp eq ptr %11, null
  br i1 %.not14, label %18, label %12

12:                                               ; preds = %9
  %13 = ptrtoint ptr %11 to i64
  %14 = ptrtoint ptr %8 to i64
  %15 = sub i64 %13, %14
  %16 = tail call i32 (ptr, ptr, ...) @PySys_Audit(ptr noundef nonnull @.str.10, ptr noundef nonnull @.str.11, ptr noundef nonnull %8, i64 noundef %15) #11
  %17 = icmp slt i32 %16, 0
  br i1 %17, label %33, label %26

18:                                               ; preds = %9, %6
  %19 = load ptr, ptr %0, align 8, !tbaa !45
  %.not15 = icmp eq ptr %19, null
  br i1 %.not15, label %20, label %23

20:                                               ; preds = %18
  %21 = getelementptr inbounds nuw i8, ptr %0, i64 16
  %22 = load ptr, ptr %21, align 8, !tbaa !43
  %.not16 = icmp eq ptr %22, null
  br i1 %.not16, label %26, label %23

23:                                               ; preds = %20, %18
  %24 = tail call i32 (ptr, ptr, ...) @PySys_Audit(ptr noundef nonnull @.str.12, ptr noundef null) #11
  %25 = icmp slt i32 %24, 0
  br i1 %25, label %33, label %26

26:                                               ; preds = %20, %23, %12
  %27 = tail call fastcc ptr @r_object(ptr noundef %0)
  %28 = icmp eq ptr %27, null
  br i1 %28, label %29, label %33

29:                                               ; preds = %26
  %30 = tail call ptr @PyErr_Occurred() #11
  %.not17 = icmp eq ptr %30, null
  br i1 %.not17, label %31, label %33

31:                                               ; preds = %29
  %32 = load ptr, ptr @PyExc_TypeError, align 8, !tbaa !29
  tail call void @PyErr_SetString(ptr noundef %32, ptr noundef nonnull @.str.13) #11
  br label %33

33:                                               ; preds = %26, %29, %31, %23, %12, %3
  %.0 = phi ptr [ null, %3 ], [ null, %12 ], [ null, %23 ], [ null, %31 ], [ null, %29 ], [ %27, %26 ]
  ret ptr %.0
}